target datalayout = "e-m:e-p270:32:32-p271:32:32-p272:64:64-i64:64-i128:128-f80:128-n8:16:32:64-S128"
target triple = "x86_64-unknown-linux-gnu"

%"class.icu_75::TimeZoneNamesDelegate" = type { %"class.icu_75::TimeZoneNames", ptr }
%"class.icu_75::TimeZoneNames" = type { %"class.icu_75::UObject" }
%"class.icu_75::UObject" = type { ptr }
%"struct.icu_75::TimeZoneNamesCacheEntry" = type { ptr, i32, double }

; Function Attrs: mustprogress uwtable
define noundef nonnull align 8 dereferenceable(64) ptr @_ZNK6icu_7521TimeZoneNamesDelegate22getMetaZoneDisplayNameERKNS_13UnicodeStringE17UTimeZoneNameTypeRS1_(ptr noundef nonnull align 8 dereferenceable(16) %this, ptr noundef nonnull align 8 dereferenceable(64) %mzID, i32 noundef %type, ptr noundef nonnull align 8 dereferenceable(64) %name) unnamed_addr #1 align 2 {
entry:
  %this.addr = alloca ptr, align 8
  %mzID.addr = alloca ptr, align 8
  %type.addr = alloca i32, align 4
  %name.addr = alloca ptr, align 8
  store ptr %this, ptr %this.addr, align 8
  store ptr %mzID, ptr %mzID.addr, align 8
  store i32 %type, ptr %type.addr, align 4
  store ptr %name, ptr %name.addr, align 8
  %this1 = load ptr, ptr %this.addr, align 8
  %fTZnamesCacheEntry = getelementptr inbounds %"class.icu_75::TimeZoneNamesDelegate", ptr %this1, i32 0, i32 1
  %0 = load ptr, ptr %fTZnamesCacheEntry, align 8
  %names = getelementptr inbounds %"struct.icu_75::TimeZoneNamesCacheEntry", ptr %0, i32 0, i32 0
  %1 = load ptr, ptr %names, align 8
  %2 = load ptr, ptr %mzID.addr, align 8
  %3 = load i32, ptr %type.addr, align 4
  %4 = load ptr, ptr %name.addr, align 8
  %vtable = load ptr, ptr %1, align 8
  %vfn = getelementptr inbounds ptr, ptr %vtable, i64 9
  %5 = load ptr, ptr %vfn, align 8
  %call = call noundef nonnull align 8 dereferenceable(64) ptr %5(ptr noundef nonnull align 8 dereferenceable(8) %1, ptr noundef nonnull align 8 dereferenceable(64) %2, i32 noundef %3, ptr noundef nonnull align 8 dereferenceable(64) %4)
  ret ptr %call
}